; Function Attrs: mustprogress nounwind uwtable
define hidden noundef range(i32 0, 41) i32 @_ZN8JvmtiEnv13SetBreakpointEP6Methodl(ptr nocapture noundef nonnull readnone align 8 dereferenceable(460) %0, ptr noundef %1, i64 noundef %2) local_unnamed_addr #0 align 2 {
  %4 = alloca %class.JvmtiBreakpoint, align 8
  %5 = icmp eq ptr %1, null
  br i1 %5, label %_ZN12ResourceMarkD2Ev.exit, label %6

6:                                                ; preds = %3
  %7 = icmp slt i64 %2, 0
  br i1 %7, label %_ZN12ResourceMarkD2Ev.exit, label %8

8:                                                ; preds = %6
  %9 = getelementptr inbounds i8, ptr %1, i64 8
  %10 = load ptr, ptr %9, align 8
  %11 = getelementptr inbounds i8, ptr %10, i64 34
  %12 = load i16, ptr %11, align 2
  %13 = zext i16 %12 to i64
  %.not = icmp ugt i64 %13, %2
  br i1 %.not, label %14, label %_ZN12ResourceMarkD2Ev.exit

14:                                               ; preds = %8
  %15 = tail call align 8 ptr @llvm.threadlocal.address.p0(ptr align 8 @_ZN6Thread12_thr_currentE)
  %16 = load ptr, ptr %15, align 8
  %17 = getelementptr inbounds i8, ptr %16, i64 800
  %18 = load ptr, ptr %17, align 8
  %19 = getelementptr inbounds i8, ptr %18, i64 24
  %20 = load ptr, ptr %19, align 8
  %21 = getelementptr inbounds i8, ptr %18, i64 32
  %22 = load ptr, ptr %21, align 8
  %23 = getelementptr inbounds i8, ptr %18, i64 40
  %24 = load ptr, ptr %23, align 8
  %25 = getelementptr inbounds i8, ptr %18, i64 8
  %26 = load i64, ptr %25, align 8
  call void @_ZN15JvmtiBreakpointC1EP6Methodl(ptr noundef nonnull align 8 dereferenceable(32) %4, ptr noundef nonnull %1, i64 noundef %2) #17
  %27 = call noundef nonnull align 8 dereferenceable(40) ptr @_ZN23JvmtiCurrentBreakpoints21get_jvmti_breakpointsEv() #17
  %28 = call noundef i32 @_ZN16JvmtiBreakpoints3setER15JvmtiBreakpoint(ptr noundef nonnull align 8 dereferenceable(40) %27, ptr noundef nonnull align 8 dereferenceable(32) %4) #17
  %29 = icmp eq i32 %28, 40
  %. = select i1 %29, i32 40, i32 0
  call void @_ZN15JvmtiBreakpointD1Ev(ptr noundef nonnull align 8 dereferenceable(32) %4) #17
  %30 = load ptr, ptr %20, align 8
  %.not.i.i.i.i = icmp eq ptr %30, null
  br i1 %.not.i.i.i.i, label %32, label %31

31:                                               ; preds = %14
  call void @_ZN5Arena17set_size_in_bytesEm(ptr noundef nonnull align 8 dereferenceable(48) %18, i64 noundef %26) #17
  call void @_ZN5Chunk9next_chopEPS_(ptr noundef nonnull %20) #17
  br label %32

32:                                               ; preds = %31, %14
  %33 = load ptr, ptr %21, align 8
  %.not8.i.i.i.i = icmp eq ptr %33, %22
  br i1 %.not8.i.i.i.i, label %_ZN12ResourceMarkD2Ev.exit, label %34

34:                                               ; preds = %32
  store ptr %20, ptr %19, align 8
  store ptr %22, ptr %21, align 8
  store ptr %24, ptr %23, align 8
  br label %_ZN12ResourceMarkD2Ev.exit

_ZN12ResourceMarkD2Ev.exit:                       ; preds = %34, %32, %8, %6, %3
  %.1 = phi i32 [ 23, %3 ], [ 24, %6 ], [ 24, %8 ], [ %., %32 ], [ %., %34 ]
  ret i32 %.1
}